; ModuleID = '9/162.c'
source_filename = "9/162.c"
target datalayout = "e-m:e-p270:32:32-p271:32:32-p272:64:64-i64:64-f80:128-n8:16:32:64-S128"
target triple = "x86_64-pc-linux-gnu"

%struct.anon = type { [10 x i8], i32, i32 }

@.str = private unnamed_addr constant [3 x i8] c"%d\00", align 1
@.str.1 = private unnamed_addr constant [6 x i8] c"%s %d\00", align 1
@.str.2 = private unnamed_addr constant [3 x i8] c"%c\00", align 1
@.str.3 = private unnamed_addr constant [2 x i8] c"\0A\00", align 1

; Function Attrs: noinline nounwind uwtable
define dso_local i32 @main() #0 {
  %1 = alloca i32, align 4
  %2 = alloca i32, align 4
  %3 = alloca i32, align 4
  %4 = alloca i32, align 4
  %5 = alloca i32, align 4
  %6 = alloca [100 x %struct.anon], align 16
  %7 = alloca %struct.anon, align 4
  %8 = alloca %struct.anon, align 4
  store i32 0, i32* %1, align 4
  %9 = call i32 (i8*, ...) @__isoc99_scanf(i8* getelementptr inbounds ([3 x i8], [3 x i8]* @.str, i64 0, i64 0), i32* %2)
  store i32 0, i32* %3, align 4
  br label %10

10:                                               ; preds = %24, %0
  %11 = load i32, i32* %3, align 4
  %12 = load i32, i32* %2, align 4
  %13 = icmp slt i32 %11, %12
  br i1 %13, label %14, label %27

14:                                               ; preds = %10
  %15 = load i32, i32* %3, align 4
  %16 = sext i32 %15 to i64
  %17 = getelementptr inbounds [100 x %struct.anon], [100 x %struct.anon]* %6, i64 0, i64 %16
  %18 = getelementptr inbounds %struct.anon, %struct.anon* %17, i32 0, i32 0
  %19 = load i32, i32* %3, align 4
  %20 = sext i32 %19 to i64
  %21 = getelementptr inbounds [100 x %struct.anon], [100 x %struct.anon]* %6, i64 0, i64 %20
  %22 = getelementptr inbounds %struct.anon, %struct.anon* %21, i32 0, i32 1
  %23 = call i32 (i8*, ...) @__isoc99_scanf(i8* getelementptr inbounds ([6 x i8], [6 x i8]* @.str.1, i64 0, i64 0), [10 x i8]* %18, i32* %22)
  br label %24

24:                                               ; preds = %14
  %25 = load i32, i32* %3, align 4
  %26 = add nsw i32 %25, 1
  store i32 %26, i32* %3, align 4
  br label %10

27:                                               ; preds = %10
  store i32 0, i32* %3, align 4
  br label %28

28:                                               ; preds = %82, %27
  %29 = load i32, i32* %3, align 4
  %30 = load i32, i32* %2, align 4
  %31 = sub nsw i32 %30, 1
  %32 = icmp slt i32 %29, %31
  br i1 %32, label %33, label %85

33:                                               ; preds = %28
  store i32 0, i32* %4, align 4
  br label %34

34:                                               ; preds = %78, %33
  %35 = load i32, i32* %4, align 4
  %36 = load i32, i32* %2, align 4
  %37 = load i32, i32* %3, align 4
  %38 = sub nsw i32 %36, %37
  %39 = sub nsw i32 %38, 1
  %40 = icmp slt i32 %35, %39
  br i1 %40, label %41, label %81

41:                                               ; preds = %34
  %42 = load i32, i32* %4, align 4
  %43 = sext i32 %42 to i64
  %44 = getelementptr inbounds [100 x %struct.anon], [100 x %struct.anon]* %6, i64 0, i64 %43
  %45 = getelementptr inbounds %struct.anon, %struct.anon* %44, i32 0, i32 1
  %46 = load i32, i32* %45, align 4
  %47 = icmp slt i32 %46, 60
  br i1 %47, label %48, label %77

48:                                               ; preds = %41
  %49 = load i32, i32* %4, align 4
  %50 = add nsw i32 %49, 1
  %51 = sext i32 %50 to i64
  %52 = getelementptr inbounds [100 x %struct.anon], [100 x %struct.anon]* %6, i64 0, i64 %51
  %53 = getelementptr inbounds %struct.anon, %struct.anon* %52, i32 0, i32 1
  %54 = load i32, i32* %53, align 4
  %55 = icmp sge i32 %54, 60
  br i1 %55, label %56, label %77

56:                                               ; preds = %48
  %57 = load i32, i32* %4, align 4
  %58 = sext i32 %57 to i64
  %59 = getelementptr inbounds [100 x %struct.anon], [100 x %struct.anon]* %6, i64 0, i64 %58
  %60 = bitcast %struct.anon* %7 to i8*
  %61 = bitcast %struct.anon* %59 to i8*
  call void @llvm.memcpy.p0i8.p0i8.i64(i8* align 4 %60, i8* align 4 %61, i64 20, i1 false)
  %62 = load i32, i32* %4, align 4
  %63 = sext i32 %62 to i64
  %64 = getelementptr inbounds [100 x %struct.anon], [100 x %struct.anon]* %6, i64 0, i64 %63
  %65 = load i32, i32* %4, align 4
  %66 = add nsw i32 %65, 1
  %67 = sext i32 %66 to i64
  %68 = getelementptr inbounds [100 x %struct.anon], [100 x %struct.anon]* %6, i64 0, i64 %67
  %69 = bitcast %struct.anon* %64 to i8*
  %70 = bitcast %struct.anon* %68 to i8*
  call void @llvm.memcpy.p0i8.p0i8.i64(i8* align 4 %69, i8* align 4 %70, i64 20, i1 false)
  %71 = load i32, i32* %4, align 4
  %72 = add nsw i32 %71, 1
  %73 = sext i32 %72 to i64
  %74 = getelementptr inbounds [100 x %struct.anon], [100 x %struct.anon]* %6, i64 0, i64 %73
  %75 = bitcast %struct.anon* %74 to i8*
  %76 = bitcast %struct.anon* %7 to i8*
  call void @llvm.memcpy.p0i8.p0i8.i64(i8* align 4 %75, i8* align 4 %76, i64 20, i1 false)
  br label %77

77:                                               ; preds = %56, %48, %41
  br label %78

78:                                               ; preds = %77
  %79 = load i32, i32* %4, align 4
  %80 = add nsw i32 %79, 1
  store i32 %80, i32* %4, align 4
  br label %34

81:                                               ; preds = %34
  br label %82

82:                                               ; preds = %81
  %83 = load i32, i32* %3, align 4
  %84 = add nsw i32 %83, 1
  store i32 %84, i32* %3, align 4
  br label %28

85:                                               ; preds = %28
  store i32 0, i32* %3, align 4
  br label %86

86:                                               ; preds = %153, %85
  %87 = load i32, i32* %3, align 4
  %88 = load i32, i32* %2, align 4
  %89 = sub nsw i32 %88, 1
  %90 = icmp slt i32 %87, %89
  br i1 %90, label %91, label %156

91:                                               ; preds = %86
  store i32 0, i32* %4, align 4
  br label %92

92:                                               ; preds = %149, %91
  %93 = load i32, i32* %4, align 4
  %94 = load i32, i32* %2, align 4
  %95 = sub nsw i32 %94, 1
  %96 = load i32, i32* %3, align 4
  %97 = sub nsw i32 %95, %96
  %98 = icmp slt i32 %93, %97
  br i1 %98, label %99, label %152

99:                                               ; preds = %92
  %100 = load i32, i32* %4, align 4
  %101 = add nsw i32 %100, 1
  %102 = sext i32 %101 to i64
  %103 = getelementptr inbounds [100 x %struct.anon], [100 x %struct.anon]* %6, i64 0, i64 %102
  %104 = getelementptr inbounds %struct.anon, %struct.anon* %103, i32 0, i32 1
  %105 = load i32, i32* %104, align 4
  %106 = icmp sge i32 %105, 60
  br i1 %106, label %107, label %148

107:                                              ; preds = %99
  %108 = load i32, i32* %4, align 4
  %109 = sext i32 %108 to i64
  %110 = getelementptr inbounds [100 x %struct.anon], [100 x %struct.anon]* %6, i64 0, i64 %109
  %111 = getelementptr inbounds %struct.anon, %struct.anon* %110, i32 0, i32 1
  %112 = load i32, i32* %111, align 4
  %113 = icmp sge i32 %112, 60
  br i1 %113, label %114, label %148

114:                                              ; preds = %107
  %115 = load i32, i32* %4, align 4
  %116 = sext i32 %115 to i64
  %117 = getelementptr inbounds [100 x %struct.anon], [100 x %struct.anon]* %6, i64 0, i64 %116
  %118 = getelementptr inbounds %struct.anon, %struct.anon* %117, i32 0, i32 1
  %119 = load i32, i32* %118, align 4
  %120 = load i32, i32* %4, align 4
  %121 = add nsw i32 %120, 1
  %122 = sext i32 %121 to i64
  %123 = getelementptr inbounds [100 x %struct.anon], [100 x %struct.anon]* %6, i64 0, i64 %122
  %124 = getelementptr inbounds %struct.anon, %struct.anon* %123, i32 0, i32 1
  %125 = load i32, i32* %124, align 4
  %126 = icmp slt i32 %119, %125
  br i1 %126, label %127, label %148

127:                                              ; preds = %114
  %128 = load i32, i32* %4, align 4
  %129 = sext i32 %128 to i64
  %130 = getelementptr inbounds [100 x %struct.anon], [100 x %struct.anon]* %6, i64 0, i64 %129
  %131 = bitcast %struct.anon* %8 to i8*
  %132 = bitcast %struct.anon* %130 to i8*
  call void @llvm.memcpy.p0i8.p0i8.i64(i8* align 4 %131, i8* align 4 %132, i64 20, i1 false)
  %133 = load i32, i32* %4, align 4
  %134 = sext i32 %133 to i64
  %135 = getelementptr inbounds [100 x %struct.anon], [100 x %struct.anon]* %6, i64 0, i64 %134
  %136 = load i32, i32* %4, align 4
  %137 = add nsw i32 %136, 1
  %138 = sext i32 %137 to i64
  %139 = getelementptr inbounds [100 x %struct.anon], [100 x %struct.anon]* %6, i64 0, i64 %138
  %140 = bitcast %struct.anon* %135 to i8*
  %141 = bitcast %struct.anon* %139 to i8*
  call void @llvm.memcpy.p0i8.p0i8.i64(i8* align 4 %140, i8* align 4 %141, i64 20, i1 false)
  %142 = load i32, i32* %4, align 4
  %143 = add nsw i32 %142, 1
  %144 = sext i32 %143 to i64
  %145 = getelementptr inbounds [100 x %struct.anon], [100 x %struct.anon]* %6, i64 0, i64 %144
  %146 = bitcast %struct.anon* %145 to i8*
  %147 = bitcast %struct.anon* %8 to i8*
  call void @llvm.memcpy.p0i8.p0i8.i64(i8* align 4 %146, i8* align 4 %147, i64 20, i1 false)
  br label %148

148:                                              ; preds = %127, %114, %107, %99
  br label %149

149:                                              ; preds = %148
  %150 = load i32, i32* %4, align 4
  %151 = add nsw i32 %150, 1
  store i32 %151, i32* %4, align 4
  br label %92

152:                                              ; preds = %92
  br label %153

153:                                              ; preds = %152
  %154 = load i32, i32* %3, align 4
  %155 = add nsw i32 %154, 1
  store i32 %155, i32* %3, align 4
  br label %86

156:                                              ; preds = %86
  %157 = getelementptr inbounds [100 x %struct.anon], [100 x %struct.anon]* %6, i64 0, i64 0
  %158 = getelementptr inbounds %struct.anon, %struct.anon* %157, i32 0, i32 0
  %159 = getelementptr inbounds [10 x i8], [10 x i8]* %158, i64 0, i64 0
  %160 = call i64 @strlen(i8* %159) #4
  %161 = trunc i64 %160 to i32
  store i32 %161, i32* %5, align 4
  store i32 0, i32* %3, align 4
  br label %162

162:                                              ; preds = %187, %156
  %163 = load i32, i32* %3, align 4
  %164 = load i32, i32* %2, align 4
  %165 = icmp slt i32 %163, %164
  br i1 %165, label %166, label %190

166:                                              ; preds = %162
  store i32 0, i32* %4, align 4
  br label %167

167:                                              ; preds = %182, %166
  %168 = load i32, i32* %4, align 4
  %169 = load i32, i32* %5, align 4
  %170 = icmp slt i32 %168, %169
  br i1 %170, label %171, label %185

171:                                              ; preds = %167
  %172 = load i32, i32* %3, align 4
  %173 = sext i32 %172 to i64
  %174 = getelementptr inbounds [100 x %struct.anon], [100 x %struct.anon]* %6, i64 0, i64 %173
  %175 = getelementptr inbounds %struct.anon, %struct.anon* %174, i32 0, i32 0
  %176 = load i32, i32* %4, align 4
  %177 = sext i32 %176 to i64
  %178 = getelementptr inbounds [10 x i8], [10 x i8]* %175, i64 0, i64 %177
  %179 = load i8, i8* %178, align 1
  %180 = sext i8 %179 to i32
  %181 = call i32 (i8*, ...) @printf(i8* getelementptr inbounds ([3 x i8], [3 x i8]* @.str.2, i64 0, i64 0), i32 %180)
  br label %182

182:                                              ; preds = %171
  %183 = load i32, i32* %4, align 4
  %184 = add nsw i32 %183, 1
  store i32 %184, i32* %4, align 4
  br label %167

185:                                              ; preds = %167
  %186 = call i32 (i8*, ...) @printf(i8* getelementptr inbounds ([2 x i8], [2 x i8]* @.str.3, i64 0, i64 0))
  br label %187

187:                                              ; preds = %185
  %188 = load i32, i32* %3, align 4
  %189 = add nsw i32 %188, 1
  store i32 %189, i32* %3, align 4
  br label %162

190:                                              ; preds = %162
  ret i32 0
}

declare dso_local i32 @__isoc99_scanf(i8*, ...) #1

; Function Attrs: argmemonly nounwind willreturn
declare void @llvm.memcpy.p0i8.p0i8.i64(i8* noalias nocapture writeonly, i8* noalias nocapture readonly, i64, i1 immarg) #2

; Function Attrs: nounwind readonly
declare dso_local i64 @strlen(i8*) #3

declare dso_local i32 @printf(i8*, ...) #1


!llvm.module.flags = !{!0}
!llvm.ident = !{!1}

!0 = !{i32 1, !"wchar_size", i32 4}
!1 = !{!"clang version 10.0.0-4ubuntu1 "}
